target datalayout = "e-m:e-p270:32:32-p271:32:32-p272:64:64-i64:64-i128:128-f80:128-n8:16:32:64-S128"
target triple = "x86_64-pc-linux-gnu"

%"class.google::protobuf::Message" = type { %"class.google::protobuf::MessageLite" }
%"class.google::protobuf::MessageLite" = type { ptr, %"class.google::protobuf::internal::InternalMetadata" }
%"class.google::protobuf::internal::InternalMetadata" = type { ptr }
%"class.google::protobuf::internal::HasBits" = type { [1 x i32] }
%"class.google::protobuf::internal::CachedSize" = type { %"struct.std::atomic" }
%"struct.std::atomic" = type { %"struct.std::__atomic_base" }
%"struct.std::__atomic_base" = type { i32 }
%"class.google::protobuf::internal::RepeatedPtrFieldBase" = type { ptr, i32, i32, ptr }
%"class.google::protobuf::RepeatedPtrField.0" = type { %"class.google::protobuf::internal::RepeatedPtrFieldBase" }
%"struct.google::protobuf::internal::ArenaStringPtr" = type { ptr }
%"class.std::__cxx11::basic_string" = type { %"struct.std::__cxx11::basic_string<char>::_Alloc_hider", i64, %union.anon }
%"struct.std::__cxx11::basic_string<char>::_Alloc_hider" = type { ptr }
%union.anon = type { i64, [8 x i8] }
%"class.google::protobuf::RepeatedPtrField.12" = type { %"class.google::protobuf::internal::RepeatedPtrFieldBase" }
%"class.onnx::TensorProto" = type { %"class.google::protobuf::Message", %"class.google::protobuf::internal::HasBits", %"class.google::protobuf::internal::CachedSize", %"class.google::protobuf::RepeatedField", %"class.google::protobuf::RepeatedField.10", %"struct.std::atomic", %"class.google::protobuf::RepeatedField.11", %"struct.std::atomic", %"class.google::protobuf::RepeatedPtrField.12", %"class.google::protobuf::RepeatedField", %"struct.std::atomic", %"class.google::protobuf::RepeatedField.13", %"struct.std::atomic", %"class.google::protobuf::RepeatedField.14", %"struct.std::atomic", %"class.google::protobuf::RepeatedPtrField.0", %"struct.google::protobuf::internal::ArenaStringPtr", %"struct.google::protobuf::internal::ArenaStringPtr", %"struct.google::protobuf::internal::ArenaStringPtr", ptr, i32, i32 }
%"class.google::protobuf::RepeatedField.10" = type { i32, i32, ptr }
%"class.google::protobuf::RepeatedField.11" = type { i32, i32, ptr }
%"class.google::protobuf::RepeatedField" = type { i32, i32, ptr }
%"class.google::protobuf::RepeatedField.13" = type { i32, i32, ptr }
%"class.google::protobuf::RepeatedField.14" = type { i32, i32, ptr }

; Function Attrs: inlinehint mustprogress nounwind uwtable
define available_externally noundef i32 @_ZNK6google8protobuf13RepeatedFieldIfE4sizeEv(ptr noundef nonnull align 8 dereferenceable(16) %0) #9 align 2 {
  %2 = alloca ptr, align 8
  store ptr %0, ptr %2, align 8, !tbaa !200
  %3 = load ptr, ptr %2, align 8
  %4 = getelementptr inbounds nuw %"class.google::protobuf::RepeatedField.10", ptr %3, i32 0, i32 0
  %5 = load i32, ptr %4, align 8, !tbaa !438
  ret i32 %5
}

; Function Attrs: inlinehint mustprogress nounwind uwtable
define linkonce_odr dso_local noundef nonnull align 8 dereferenceable(32) ptr @_ZNK6google8protobuf8internal14ArenaStringPtr3GetB5cxx11Ev(ptr noundef nonnull align 8 dereferenceable(8) %0) #9 comdat align 2 {
  %2 = alloca ptr, align 8
  store ptr %0, ptr %2, align 8, !tbaa !354
  %3 = load ptr, ptr %2, align 8
  %4 = getelementptr inbounds nuw %"struct.google::protobuf::internal::ArenaStringPtr", ptr %3, i32 0, i32 0
  %5 = load ptr, ptr %4, align 8, !tbaa !356
  ret ptr %5
}

; Function Attrs: alwaysinline mustprogress nounwind uwtable
define linkonce_odr dso_local noundef nonnull align 4 dereferenceable(4) ptr @_ZNK6google8protobuf8internal7HasBitsILm1EEixEi(ptr noundef nonnull align 4 dereferenceable(4) %0, i32 noundef %1) #12 comdat align 2 {
  %3 = alloca ptr, align 8
  %4 = alloca i32, align 4
  store ptr %0, ptr %3, align 8, !tbaa !305
  store i32 %1, ptr %4, align 4, !tbaa !4
  %5 = load ptr, ptr %3, align 8
  %6 = getelementptr inbounds nuw %"class.google::protobuf::internal::HasBits", ptr %5, i32 0, i32 0
  %7 = load i32, ptr %4, align 4, !tbaa !4
  %8 = sext i32 %7 to i64
  %9 = getelementptr inbounds [1 x i32], ptr %6, i64 0, i64 %8
  ret ptr %9
}

; Function Attrs: inlinehint mustprogress uwtable
define linkonce_odr dso_local noundef i32 @_ZNK4onnx11TensorProto25_internal_float_data_sizeEv(ptr noundef nonnull align 8 dereferenceable(248) %0) #6 comdat align 2 {
  %2 = alloca ptr, align 8
  store ptr %0, ptr %2, align 8, !tbaa !22
  %3 = load ptr, ptr %2, align 8
  %4 = getelementptr inbounds nuw %"class.onnx::TensorProto", ptr %3, i32 0, i32 4
  %5 = call noundef i32 @_ZNK6google8protobuf13RepeatedFieldIfE4sizeEv(ptr noundef nonnull align 8 dereferenceable(16) %4)
  ret i32 %5
}

; Function Attrs: mustprogress nounwind uwtable
define available_externally noundef ptr @_ZNK6google8protobuf13RepeatedFieldIfE15unsafe_elementsEv(ptr noundef nonnull align 8 dereferenceable(16) %0) #8 align 2 {
  %2 = alloca ptr, align 8
  store ptr %0, ptr %2, align 8, !tbaa !200
  %3 = load ptr, ptr %2, align 8
  %4 = getelementptr inbounds nuw %"class.google::protobuf::RepeatedField.10", ptr %3, i32 0, i32 2
  %5 = load ptr, ptr %4, align 8, !tbaa !442
  ret ptr %5
}

; Function Attrs: inlinehint mustprogress nounwind uwtable
define linkonce_odr dso_local noundef nonnull align 8 dereferenceable(16) ptr @_ZNK4onnx11TensorProto20_internal_float_dataEv(ptr noundef nonnull align 8 dereferenceable(248) %0) #9 comdat align 2 {
  %2 = alloca ptr, align 8
  store ptr %0, ptr %2, align 8, !tbaa !22
  %3 = load ptr, ptr %2, align 8
  %4 = getelementptr inbounds nuw %"class.onnx::TensorProto", ptr %3, i32 0, i32 4
  ret ptr %4
}

; Function Attrs: inlinehint mustprogress nounwind uwtable
define linkonce_odr dso_local noundef i32 @_ZNK4onnx11TensorProto19_internal_data_typeEv(ptr noundef nonnull align 8 dereferenceable(248) %0) #9 comdat align 2 {
  %2 = alloca ptr, align 8
  store ptr %0, ptr %2, align 8, !tbaa !22
  %3 = load ptr, ptr %2, align 8
  %4 = getelementptr inbounds nuw %"class.onnx::TensorProto", ptr %3, i32 0, i32 20
  %5 = load i32, ptr %4, align 8, !tbaa !543
  ret i32 %5
}

; Function Attrs: mustprogress nounwind uwtable
define available_externally noundef ptr @_ZNKSt7__cxx1112basic_stringIcSt11char_traitsIcESaIcEE7_M_dataEv(ptr noundef nonnull align 8 dereferenceable(32) %0) #8 align 2 {
  %2 = alloca ptr, align 8
  store ptr %0, ptr %2, align 8, !tbaa !26
  %3 = load ptr, ptr %2, align 8
  %4 = getelementptr inbounds nuw %"class.std::__cxx11::basic_string", ptr %3, i32 0, i32 0
  %5 = getelementptr inbounds nuw %"struct.std::__cxx11::basic_string<char>::_Alloc_hider", ptr %4, i32 0, i32 0
  %6 = load ptr, ptr %5, align 8, !tbaa !433
  ret ptr %6
}

; Function Attrs: inlinehint mustprogress nounwind uwtable
define linkonce_odr dso_local noundef nonnull align 8 dereferenceable(32) ptr @_ZNK4onnx11TensorProto18_internal_raw_dataB5cxx11Ev(ptr noundef nonnull align 8 dereferenceable(248) %0) #9 comdat align 2 {
  %2 = alloca ptr, align 8
  store ptr %0, ptr %2, align 8, !tbaa !22
  %3 = load ptr, ptr %2, align 8
  %4 = getelementptr inbounds nuw %"class.onnx::TensorProto", ptr %3, i32 0, i32 17
  %5 = call noundef nonnull align 8 dereferenceable(32) ptr @_ZNK6google8protobuf8internal14ArenaStringPtr3GetB5cxx11Ev(ptr noundef nonnull align 8 dereferenceable(8) %4)
  ret ptr %5
}

; Function Attrs: inlinehint mustprogress uwtable
define linkonce_odr dso_local noundef zeroext i1 @_ZNK4onnx11TensorProto22_internal_has_raw_dataEv(ptr noundef nonnull align 8 dereferenceable(248) %0) #6 comdat align 2 {
  %2 = alloca ptr, align 8
  %3 = alloca i8, align 1
  store ptr %0, ptr %2, align 8, !tbaa !22
  %4 = load ptr, ptr %2, align 8
  call void @llvm.lifetime.start.p0(i64 1, ptr %3) #3
  %5 = getelementptr inbounds nuw %"class.onnx::TensorProto", ptr %4, i32 0, i32 1
  %6 = call noundef nonnull align 4 dereferenceable(4) ptr @_ZNK6google8protobuf8internal7HasBitsILm1EEixEi(ptr noundef nonnull align 4 dereferenceable(4) %5, i32 noundef 0)
  %7 = load i32, ptr %6, align 4, !tbaa !4
  %8 = and i32 %7, 2
  %9 = icmp ne i32 %8, 0
  %10 = zext i1 %9 to i8
  store i8 %10, ptr %3, align 1, !tbaa !16
  %11 = load i8, ptr %3, align 1, !tbaa !16, !range !18, !noundef !19
  %12 = trunc i8 %11 to i1
  call void @llvm.lifetime.end.p0(i64 1, ptr %3) #3
  ret i1 %12
}

; Function Attrs: inlinehint mustprogress uwtable
define linkonce_odr dso_local noundef i32 @_ZNK4onnx11TensorProto15float_data_sizeEv(ptr noundef nonnull align 8 dereferenceable(248) %0) #6 comdat align 2 {
  %2 = alloca ptr, align 8
  store ptr %0, ptr %2, align 8, !tbaa !22
  %3 = load ptr, ptr %2, align 8
  %4 = call noundef i32 @_ZNK4onnx11TensorProto25_internal_float_data_sizeEv(ptr noundef nonnull align 8 dereferenceable(248) %3)
  ret i32 %4
}

; Function Attrs: mustprogress nounwind uwtable
define available_externally noundef i64 @_ZNKSt7__cxx1112basic_stringIcSt11char_traitsIcESaIcEE4sizeEv(ptr noundef nonnull align 8 dereferenceable(32) %0) #8 align 2 {
  %2 = alloca ptr, align 8
  store ptr %0, ptr %2, align 8, !tbaa !26
  %3 = load ptr, ptr %2, align 8
  %4 = getelementptr inbounds nuw %"class.std::__cxx11::basic_string", ptr %3, i32 0, i32 1
  %5 = load i64, ptr %4, align 8, !tbaa !436
  ret i64 %5
}

; Function Attrs: inlinehint mustprogress nounwind uwtable
define available_externally noundef ptr @_ZNK6google8protobuf13RepeatedFieldIfE4dataEv(ptr noundef nonnull align 8 dereferenceable(16) %0) #9 align 2 {
  %2 = alloca ptr, align 8
  store ptr %0, ptr %2, align 8, !tbaa !200
  %3 = load ptr, ptr %2, align 8
  %4 = call noundef ptr @_ZNK6google8protobuf13RepeatedFieldIfE15unsafe_elementsEv(ptr noundef nonnull align 8 dereferenceable(16) %3)
  ret ptr %4
}

; Function Attrs: inlinehint mustprogress uwtable
define linkonce_odr dso_local noundef nonnull align 8 dereferenceable(16) ptr @_ZNK4onnx11TensorProto10float_dataEv(ptr noundef nonnull align 8 dereferenceable(248) %0) #6 comdat align 2 {
  %2 = alloca ptr, align 8
  store ptr %0, ptr %2, align 8, !tbaa !22
  %3 = load ptr, ptr %2, align 8
  %4 = call noundef nonnull align 8 dereferenceable(16) ptr @_ZNK4onnx11TensorProto20_internal_float_dataEv(ptr noundef nonnull align 8 dereferenceable(248) %3)
  ret ptr %4
}

; Function Attrs: inlinehint mustprogress uwtable
define linkonce_odr dso_local noundef i32 @_ZNK4onnx11TensorProto9data_typeEv(ptr noundef nonnull align 8 dereferenceable(248) %0) #6 comdat align 2 {
  %2 = alloca ptr, align 8
  store ptr %0, ptr %2, align 8, !tbaa !22
  %3 = load ptr, ptr %2, align 8
  %4 = call noundef i32 @_ZNK4onnx11TensorProto19_internal_data_typeEv(ptr noundef nonnull align 8 dereferenceable(248) %3)
  ret i32 %4
}

; Function Attrs: mustprogress nounwind uwtable
define available_externally noundef ptr @_ZNKSt7__cxx1112basic_stringIcSt11char_traitsIcESaIcEE4dataEv(ptr noundef nonnull align 8 dereferenceable(32) %0) #8 align 2 {
  %2 = alloca ptr, align 8
  store ptr %0, ptr %2, align 8, !tbaa !26
  %3 = load ptr, ptr %2, align 8
  %4 = call noundef ptr @_ZNKSt7__cxx1112basic_stringIcSt11char_traitsIcESaIcEE7_M_dataEv(ptr noundef nonnull align 8 dereferenceable(32) %3)
  ret ptr %4
}

; Function Attrs: inlinehint mustprogress uwtable
define linkonce_odr dso_local noundef nonnull align 8 dereferenceable(32) ptr @_ZNK4onnx11TensorProto8raw_dataB5cxx11Ev(ptr noundef nonnull align 8 dereferenceable(248) %0) #6 comdat align 2 {
  %2 = alloca ptr, align 8
  store ptr %0, ptr %2, align 8, !tbaa !22
  %3 = load ptr, ptr %2, align 8
  %4 = call noundef nonnull align 8 dereferenceable(32) ptr @_ZNK4onnx11TensorProto18_internal_raw_dataB5cxx11Ev(ptr noundef nonnull align 8 dereferenceable(248) %3)
  ret ptr %4
}

; Function Attrs: inlinehint mustprogress uwtable
define linkonce_odr dso_local noundef zeroext i1 @_ZNK4onnx11TensorProto12has_raw_dataEv(ptr noundef nonnull align 8 dereferenceable(248) %0) #6 comdat align 2 {
  %2 = alloca ptr, align 8
  store ptr %0, ptr %2, align 8, !tbaa !22
  %3 = load ptr, ptr %2, align 8
  %4 = call noundef zeroext i1 @_ZNK4onnx11TensorProto22_internal_has_raw_dataEv(ptr noundef nonnull align 8 dereferenceable(248) %3)
  ret i1 %4
}

; Function Attrs: mustprogress uwtable
define internal noundef i32 @_ZL26get_tensor_proto_data_sizeRKN4onnx11TensorProtoE(ptr noundef nonnull align 8 dereferenceable(248) %0) #7 {
  %2 = alloca i32, align 4
  %3 = alloca ptr, align 8
  %4 = alloca ptr, align 8
  %5 = alloca i32, align 4
  store ptr %0, ptr %3, align 8, !tbaa !22
  %6 = load ptr, ptr %3, align 8, !tbaa !22
  %7 = call noundef zeroext i1 @_ZNK4onnx11TensorProto12has_raw_dataEv(ptr noundef nonnull align 8 dereferenceable(248) %6)
  br i1 %7, label %8, label %16

8:                                                ; preds = %1
  call void @llvm.lifetime.start.p0(i64 8, ptr %4) #3
  %9 = load ptr, ptr %3, align 8, !tbaa !22
  %10 = call noundef nonnull align 8 dereferenceable(32) ptr @_ZNK4onnx11TensorProto8raw_dataB5cxx11Ev(ptr noundef nonnull align 8 dereferenceable(248) %9)
  store ptr %10, ptr %4, align 8, !tbaa !26
  call void @llvm.lifetime.start.p0(i64 4, ptr %5) #3
  %11 = load ptr, ptr %4, align 8, !tbaa !26
  %12 = call noundef i64 @_ZNKSt7__cxx1112basic_stringIcSt11char_traitsIcESaIcEE4sizeEv(ptr noundef nonnull align 8 dereferenceable(32) %11) #3
  %13 = trunc i64 %12 to i32
  %14 = sdiv i32 %13, 4
  store i32 %14, ptr %5, align 4, !tbaa !4
  %15 = load i32, ptr %5, align 4, !tbaa !4
  store i32 %15, ptr %2, align 4
  call void @llvm.lifetime.end.p0(i64 4, ptr %5) #3
  call void @llvm.lifetime.end.p0(i64 8, ptr %4) #3
  br label %25

16:                                               ; preds = %1
  %17 = load ptr, ptr %3, align 8, !tbaa !22
  %18 = call noundef i32 @_ZNK4onnx11TensorProto9data_typeEv(ptr noundef nonnull align 8 dereferenceable(248) %17)
  %19 = icmp eq i32 %18, 1
  br i1 %19, label %20, label %23

20:                                               ; preds = %16
  %21 = load ptr, ptr %3, align 8, !tbaa !22
  %22 = call noundef i32 @_ZNK4onnx11TensorProto15float_data_sizeEv(ptr noundef nonnull align 8 dereferenceable(248) %21)
  store i32 %22, ptr %2, align 4
  br label %25

23:                                               ; preds = %16
  br label %24

24:                                               ; preds = %23
  store i32 0, ptr %2, align 4
  br label %25

25:                                               ; preds = %24, %20, %8
  %26 = load i32, ptr %2, align 4
  ret i32 %26
}

; Function Attrs: mustprogress uwtable
define internal void @_ZL24fwrite_tensor_proto_dataRKN4onnx11TensorProtoEP8_IO_FILE(ptr noundef nonnull align 8 dereferenceable(248) %0, ptr noundef %1) #7 {
  %3 = alloca ptr, align 8
  %4 = alloca ptr, align 8
  %5 = alloca i32, align 4
  %6 = alloca ptr, align 8
  store ptr %0, ptr %3, align 8, !tbaa !22
  store ptr %1, ptr %4, align 8, !tbaa !12
  call void @llvm.lifetime.start.p0(i64 4, ptr %5) #3
  %7 = load ptr, ptr %3, align 8, !tbaa !22
  %8 = call noundef i32 @_ZL26get_tensor_proto_data_sizeRKN4onnx11TensorProtoE(ptr noundef nonnull align 8 dereferenceable(248) %7)
  store i32 %8, ptr %5, align 4, !tbaa !4
  %9 = load ptr, ptr %3, align 8, !tbaa !22
  %10 = call noundef zeroext i1 @_ZNK4onnx11TensorProto12has_raw_dataEv(ptr noundef nonnull align 8 dereferenceable(248) %9)
  br i1 %10, label %11, label %20

11:                                               ; preds = %2
  call void @llvm.lifetime.start.p0(i64 8, ptr %6) #3
  %12 = load ptr, ptr %3, align 8, !tbaa !22
  %13 = call noundef nonnull align 8 dereferenceable(32) ptr @_ZNK4onnx11TensorProto8raw_dataB5cxx11Ev(ptr noundef nonnull align 8 dereferenceable(248) %12)
  store ptr %13, ptr %6, align 8, !tbaa !26
  %14 = load ptr, ptr %6, align 8, !tbaa !26
  %15 = call noundef ptr @_ZNKSt7__cxx1112basic_stringIcSt11char_traitsIcESaIcEE4dataEv(ptr noundef nonnull align 8 dereferenceable(32) %14) #3
  %16 = load i32, ptr %5, align 4, !tbaa !4
  %17 = sext i32 %16 to i64
  %18 = load ptr, ptr %4, align 8, !tbaa !12
  %19 = call i64 @fwrite(ptr noundef %15, i64 noundef 4, i64 noundef %17, ptr noundef %18)
  call void @llvm.lifetime.end.p0(i64 8, ptr %6) #3
  br label %33

20:                                               ; preds = %2
  %21 = load ptr, ptr %3, align 8, !tbaa !22
  %22 = call noundef i32 @_ZNK4onnx11TensorProto9data_typeEv(ptr noundef nonnull align 8 dereferenceable(248) %21)
  %23 = icmp eq i32 %22, 1
  br i1 %23, label %24, label %32

24:                                               ; preds = %20
  %25 = load ptr, ptr %3, align 8, !tbaa !22
  %26 = call noundef nonnull align 8 dereferenceable(16) ptr @_ZNK4onnx11TensorProto10float_dataEv(ptr noundef nonnull align 8 dereferenceable(248) %25)
  %27 = call noundef ptr @_ZNK6google8protobuf13RepeatedFieldIfE4dataEv(ptr noundef nonnull align 8 dereferenceable(16) %26)
  %28 = load i32, ptr %5, align 4, !tbaa !4
  %29 = sext i32 %28 to i64
  %30 = load ptr, ptr %4, align 8, !tbaa !12
  %31 = call i64 @fwrite(ptr noundef %27, i64 noundef 4, i64 noundef %29, ptr noundef %30)
  br label %32

32:                                               ; preds = %24, %20
  br label %33

33:                                               ; preds = %32, %11
  call void @llvm.lifetime.end.p0(i64 4, ptr %5) #3
  ret void
}