; Function Attrs: mustprogress nofree norecurse nounwind uwtable
define internal fastcc void @_ZL24fwrite_tensor_proto_dataRKN4onnx11TensorProtoEP8_IO_FILE(ptr noundef nonnull readonly align 8 captures(none) dereferenceable(248) %0, ptr noundef captures(none) %1) unnamed_addr #10 {
  %3 = getelementptr inbounds nuw i8, ptr %0, i64 16
  %4 = load i32, ptr %3, align 8, !tbaa !21
  %5 = and i32 %4, 2
  %.not.i = icmp eq i32 %5, 0
  br i1 %.not.i, label %6, label %10

6:                                                ; preds = %2
  %7 = getelementptr inbounds nuw i8, ptr %0, i64 240
  %8 = load i32, ptr %7, align 8, !tbaa !153
  %9 = icmp eq i32 %8, 1
  br i1 %9, label %17, label %23

10:                                               ; preds = %2
  %11 = getelementptr inbounds nuw i8, ptr %0, i64 216
  %12 = load ptr, ptr %11, align 8, !tbaa !71
  %13 = getelementptr inbounds nuw i8, ptr %12, i64 8
  %14 = load i64, ptr %13, align 8, !tbaa !77
  %15 = trunc i64 %14 to i32
  %16 = sdiv i32 %15, 4
  br label %.sink.split

17:                                               ; preds = %6
  %18 = getelementptr inbounds nuw i8, ptr %0, i64 40
  %19 = load i32, ptr %18, align 8
  %20 = getelementptr inbounds nuw i8, ptr %0, i64 48
  br label %.sink.split

.sink.split:                                      ; preds = %10, %17
  %.sink12 = phi i32 [ %19, %17 ], [ %16, %10 ]
  %.sink.in = phi ptr [ %20, %17 ], [ %12, %10 ]
  %.sink = load ptr, ptr %.sink.in, align 8, !tbaa !70
  %21 = sext i32 %.sink12 to i64
  %22 = tail call i64 @fwrite(ptr noundef %.sink, i64 noundef 4, i64 noundef %21, ptr noundef %1)
  br label %23

23:                                               ; preds = %.sink.split, %6
  ret void
}